target datalayout = "e-m:e-p270:32:32-p271:32:32-p272:64:64-i64:64-i128:128-f80:128-n8:16:32:64-S128"
target triple = "x86_64-pc-linux-gnu"

%struct.UCharIterator = type { ptr, i32, i32, i32, i32, i32, ptr, ptr, ptr, ptr, ptr, ptr, ptr, ptr, ptr, ptr }
%"class.icu_77::CharacterIterator" = type { %"class.icu_77::ForwardCharacterIterator", i32, i32, i32, i32 }
%"class.icu_77::ForwardCharacterIterator" = type { %"class.icu_77::UObject" }
%"class.icu_77::UObject" = type { ptr }

; Function Attrs: inlinehint mustprogress nounwind uwtable
define linkonce_odr noundef i32 @_ZNK6icu_7717CharacterIterator9getLengthEv(ptr noundef nonnull align 8 dereferenceable(24) %0) #7 comdat align 2 {
  %2 = alloca ptr, align 8
  store ptr %0, ptr %2, align 8, !tbaa !23
  %3 = load ptr, ptr %2, align 8
  %4 = getelementptr inbounds nuw %"class.icu_77::CharacterIterator", ptr %3, i32 0, i32 1
  %5 = load i32, ptr %4, align 8, !tbaa !49
  ret i32 %5
}

; Function Attrs: inlinehint mustprogress nounwind uwtable
define linkonce_odr noundef i32 @_ZNK6icu_7717CharacterIterator8endIndexEv(ptr noundef nonnull align 8 dereferenceable(24) %0) #7 comdat align 2 {
  %2 = alloca ptr, align 8
  store ptr %0, ptr %2, align 8, !tbaa !23
  %3 = load ptr, ptr %2, align 8
  %4 = getelementptr inbounds nuw %"class.icu_77::CharacterIterator", ptr %3, i32 0, i32 4
  %5 = load i32, ptr %4, align 4, !tbaa !48
  ret i32 %5
}

; Function Attrs: inlinehint mustprogress nounwind uwtable
define linkonce_odr noundef i32 @_ZNK6icu_7717CharacterIterator8getIndexEv(ptr noundef nonnull align 8 dereferenceable(24) %0) #7 comdat align 2 {
  %2 = alloca ptr, align 8
  store ptr %0, ptr %2, align 8, !tbaa !23
  %3 = load ptr, ptr %2, align 8
  %4 = getelementptr inbounds nuw %"class.icu_77::CharacterIterator", ptr %3, i32 0, i32 2
  %5 = load i32, ptr %4, align 4, !tbaa !47
  ret i32 %5
}

; Function Attrs: inlinehint mustprogress nounwind uwtable
define linkonce_odr noundef i32 @_ZNK6icu_7717CharacterIterator10startIndexEv(ptr noundef nonnull align 8 dereferenceable(24) %0) #7 comdat align 2 {
  %2 = alloca ptr, align 8
  store ptr %0, ptr %2, align 8, !tbaa !23
  %3 = load ptr, ptr %2, align 8
  %4 = getelementptr inbounds nuw %"class.icu_77::CharacterIterator", ptr %3, i32 0, i32 3
  %5 = load i32, ptr %4, align 8, !tbaa !43
  ret i32 %5
}

; Function Attrs: mustprogress uwtable
define internal noundef i32 @_ZL25characterIteratorGetIndexP13UCharIterator19UCharIteratorOrigin(ptr noundef %0, i32 noundef %1) #0 {
  %3 = alloca i32, align 4
  %4 = alloca ptr, align 8
  %5 = alloca i32, align 4
  store ptr %0, ptr %4, align 8, !tbaa !3
  store i32 %1, ptr %5, align 4, !tbaa !37
  %6 = load i32, ptr %5, align 4, !tbaa !37
  switch i32 %6, label %28 [
    i32 3, label %7
    i32 0, label %8
    i32 1, label %13
    i32 2, label %18
    i32 4, label %23
  ]

7:                                                ; preds = %2
  store i32 0, ptr %3, align 4
  br label %29

8:                                                ; preds = %2
  %9 = load ptr, ptr %4, align 8, !tbaa !3
  %10 = getelementptr inbounds nuw %struct.UCharIterator, ptr %9, i32 0, i32 0
  %11 = load ptr, ptr %10, align 8, !tbaa !14
  %12 = call noundef i32 @_ZNK6icu_7717CharacterIterator10startIndexEv(ptr noundef nonnull align 8 dereferenceable(24) %11)
  store i32 %12, ptr %3, align 4
  br label %29

13:                                               ; preds = %2
  %14 = load ptr, ptr %4, align 8, !tbaa !3
  %15 = getelementptr inbounds nuw %struct.UCharIterator, ptr %14, i32 0, i32 0
  %16 = load ptr, ptr %15, align 8, !tbaa !14
  %17 = call noundef i32 @_ZNK6icu_7717CharacterIterator8getIndexEv(ptr noundef nonnull align 8 dereferenceable(24) %16)
  store i32 %17, ptr %3, align 4
  br label %29

18:                                               ; preds = %2
  %19 = load ptr, ptr %4, align 8, !tbaa !3
  %20 = getelementptr inbounds nuw %struct.UCharIterator, ptr %19, i32 0, i32 0
  %21 = load ptr, ptr %20, align 8, !tbaa !14
  %22 = call noundef i32 @_ZNK6icu_7717CharacterIterator8endIndexEv(ptr noundef nonnull align 8 dereferenceable(24) %21)
  store i32 %22, ptr %3, align 4
  br label %29

23:                                               ; preds = %2
  %24 = load ptr, ptr %4, align 8, !tbaa !3
  %25 = getelementptr inbounds nuw %struct.UCharIterator, ptr %24, i32 0, i32 0
  %26 = load ptr, ptr %25, align 8, !tbaa !14
  %27 = call noundef i32 @_ZNK6icu_7717CharacterIterator9getLengthEv(ptr noundef nonnull align 8 dereferenceable(24) %26)
  store i32 %27, ptr %3, align 4
  br label %29

28:                                               ; preds = %2
  store i32 -1, ptr %3, align 4
  br label %29

29:                                               ; preds = %28, %23, %18, %13, %8, %7
  %30 = load i32, ptr %3, align 4
  ret i32 %30
}