; Function Attrs: mustprogress nofree norecurse nosync nounwind willreturn memory(read, inaccessiblemem: none) uwtable
define internal noundef i32 @_ZL25characterIteratorGetIndexP13UCharIterator19UCharIteratorOrigin(ptr noundef readonly captures(none) %0, i32 noundef %1) #8 {
  switch i32 %1, label %19 [
    i32 3, label %20
    i32 0, label %3
    i32 1, label %7
    i32 2, label %11
    i32 4, label %15
  ]

3:                                                ; preds = %2
  %4 = load ptr, ptr %0, align 8, !tbaa !10
  %5 = getelementptr inbounds nuw i8, ptr %4, i64 16
  %6 = load i32, ptr %5, align 8, !tbaa !31
  br label %20

7:                                                ; preds = %2
  %8 = load ptr, ptr %0, align 8, !tbaa !10
  %9 = getelementptr inbounds nuw i8, ptr %8, i64 12
  %10 = load i32, ptr %9, align 4, !tbaa !35
  br label %20

11:                                               ; preds = %2
  %12 = load ptr, ptr %0, align 8, !tbaa !10
  %13 = getelementptr inbounds nuw i8, ptr %12, i64 20
  %14 = load i32, ptr %13, align 4, !tbaa !36
  br label %20

15:                                               ; preds = %2
  %16 = load ptr, ptr %0, align 8, !tbaa !10
  %17 = getelementptr inbounds nuw i8, ptr %16, i64 8
  %18 = load i32, ptr %17, align 8, !tbaa !37
  br label %20

19:                                               ; preds = %2
  br label %20

20:                                               ; preds = %2, %19, %15, %11, %7, %3
  %.0 = phi i32 [ -1, %19 ], [ %18, %15 ], [ %14, %11 ], [ %10, %7 ], [ %6, %3 ], [ 0, %2 ]
  ret i32 %.0
}